target datalayout = "e-m:e-p270:32:32-p271:32:32-p272:64:64-i64:64-i128:128-f80:128-n8:16:32:64-S128"
target triple = "x86_64-pc-linux-gnu"

%struct._object = type { %union.anon, ptr }
%union.anon = type { i64 }
%struct._typeobject = type { %struct.PyVarObject, ptr, i64, i64, ptr, i64, ptr, ptr, ptr, ptr, ptr, ptr, ptr, ptr, ptr, ptr, ptr, ptr, ptr, i64, ptr, ptr, ptr, ptr, i64, ptr, ptr, ptr, ptr, ptr, ptr, ptr, ptr, ptr, i64, ptr, ptr, ptr, ptr, ptr, ptr, ptr, ptr, ptr, ptr, ptr, i32, ptr, ptr, i8, i16 }
%struct.PyVarObject = type { %struct._object, i64 }
%struct.anon = type { i32, i32 }
%struct.ElementObject = type { %struct._object, ptr, ptr, ptr, ptr, ptr }
%struct._ts = type { ptr, ptr, ptr, i64, %struct.anon.0, i32, i32, i32, i32, i32, i32, i32, i32, ptr, ptr, ptr, ptr, ptr, ptr, ptr, ptr, i32, ptr, i64, i64, ptr, i64, i32, ptr, ptr, ptr, i64, i64, ptr, ptr, ptr, %struct._err_stackitem, ptr, i64, ptr, ptr }
%struct.anon.0 = type { i32 }
%struct._err_stackitem = type { ptr, ptr }

; Function Attrs: alwaysinline nounwind uwtable
define internal i32 @_Py_IsImmortal(ptr noundef %0) #4 {
  %2 = alloca ptr, align 8
  store ptr %0, ptr %2, align 8, !tbaa !3
  %3 = load ptr, ptr %2, align 8, !tbaa !3
  %4 = getelementptr inbounds nuw %struct._object, ptr %3, i32 0, i32 0
  %5 = getelementptr inbounds nuw %struct.anon, ptr %4, i32 0, i32 0
  %6 = load i32, ptr %5, align 8, !tbaa !32
  %7 = icmp slt i32 %6, 0
  %8 = zext i1 %7 to i32
  ret i32 %8
}

; Function Attrs: alwaysinline nounwind uwtable
define internal void @Py_DECREF(ptr noundef %0) #4 {
  %2 = alloca ptr, align 8
  store ptr %0, ptr %2, align 8, !tbaa !3
  %3 = load ptr, ptr %2, align 8, !tbaa !3
  %4 = call i32 @_Py_IsImmortal(ptr noundef %3)
  %5 = icmp ne i32 %4, 0
  br i1 %5, label %6, label %7

6:                                                ; preds = %1
  br label %16

7:                                                ; preds = %1
  %8 = load ptr, ptr %2, align 8, !tbaa !3
  %9 = getelementptr inbounds nuw %struct._object, ptr %8, i32 0, i32 0
  %10 = getelementptr inbounds nuw %struct.anon, ptr %9, i32 0, i32 0
  %11 = load i32, ptr %10, align 8, !tbaa !32
  %12 = add i32 %11, -1
  store i32 %12, ptr %10, align 8, !tbaa !32
  %13 = icmp eq i32 %12, 0
  br i1 %13, label %14, label %16

14:                                               ; preds = %7
  %15 = load ptr, ptr %2, align 8, !tbaa !3
  call void @_Py_Dealloc(ptr noundef %15)
  br label %16

16:                                               ; preds = %6, %14, %7
  ret void
}

; Function Attrs: inlinehint nounwind uwtable
define internal ptr @_Py_TYPE(ptr noundef %0) #3 {
  %2 = alloca ptr, align 8
  store ptr %0, ptr %2, align 8, !tbaa !3
  %3 = load ptr, ptr %2, align 8, !tbaa !3
  %4 = getelementptr inbounds nuw %struct._object, ptr %3, i32 0, i32 1
  %5 = load ptr, ptr %4, align 8, !tbaa !52
  ret ptr %5
}

; Function Attrs: nounwind uwtable
define internal void @element_dealloc(ptr noundef %0) #0 {
  %2 = alloca ptr, align 8
  %3 = alloca ptr, align 8
  %4 = alloca ptr, align 8
  %5 = alloca ptr, align 8
  %6 = alloca i32, align 4
  store ptr %0, ptr %2, align 8, !tbaa !3
  call void @llvm.lifetime.start.p0(i64 8, ptr %3) #8
  %7 = load ptr, ptr %2, align 8, !tbaa !3
  store ptr %7, ptr %3, align 8, !tbaa !8
  call void @llvm.lifetime.start.p0(i64 8, ptr %4) #8
  %8 = load ptr, ptr %3, align 8, !tbaa !8
  %9 = call ptr @_Py_TYPE(ptr noundef %8)
  store ptr %9, ptr %4, align 8, !tbaa !28
  %10 = load ptr, ptr %3, align 8, !tbaa !8
  call void @PyObject_GC_UnTrack(ptr noundef %10)
  br label %11

11:                                               ; preds = %1
  call void @llvm.lifetime.start.p0(i64 8, ptr %5) #8
  %12 = call ptr @PyThreadState_Get()
  store ptr %12, ptr %5, align 8, !tbaa !115
  %13 = load ptr, ptr %5, align 8, !tbaa !115
  %14 = getelementptr inbounds nuw %struct._ts, ptr %13, i32 0, i32 9
  %15 = load i32, ptr %14, align 4, !tbaa !117
  %16 = icmp sle i32 %15, 50
  br i1 %16, label %17, label %26

17:                                               ; preds = %11
  %18 = load ptr, ptr %3, align 8, !tbaa !8
  %19 = call ptr @_Py_TYPE(ptr noundef %18)
  %20 = getelementptr inbounds nuw %struct._typeobject, ptr %19, i32 0, i32 4
  %21 = load ptr, ptr %20, align 8, !tbaa !125
  %22 = icmp eq ptr %21, @element_dealloc
  br i1 %22, label %23, label %26

23:                                               ; preds = %17
  %24 = load ptr, ptr %5, align 8, !tbaa !115
  %25 = load ptr, ptr %3, align 8, !tbaa !8
  call void @_PyTrash_thread_deposit_object(ptr noundef %24, ptr noundef %25)
  store i32 2, ptr %6, align 4
  br label %61

26:                                               ; preds = %17, %11
  %27 = load ptr, ptr %5, align 8, !tbaa !115
  %28 = getelementptr inbounds nuw %struct._ts, ptr %27, i32 0, i32 9
  %29 = load i32, ptr %28, align 4, !tbaa !117
  %30 = add i32 %29, -1
  store i32 %30, ptr %28, align 4, !tbaa !117
  %31 = load ptr, ptr %3, align 8, !tbaa !8
  %32 = getelementptr inbounds nuw %struct.ElementObject, ptr %31, i32 0, i32 5
  %33 = load ptr, ptr %32, align 8, !tbaa !47
  %34 = icmp ne ptr %33, null
  br i1 %34, label %35, label %37

35:                                               ; preds = %26
  %36 = load ptr, ptr %2, align 8, !tbaa !3
  call void @PyObject_ClearWeakRefs(ptr noundef %36)
  br label %37

37:                                               ; preds = %35, %26
  %38 = load ptr, ptr %2, align 8, !tbaa !3
  %39 = call i32 @element_gc_clear(ptr noundef %38)
  %40 = load ptr, ptr %4, align 8, !tbaa !28
  %41 = getelementptr inbounds nuw %struct._typeobject, ptr %40, i32 0, i32 38
  %42 = load ptr, ptr %41, align 8, !tbaa !84
  %43 = load ptr, ptr %3, align 8, !tbaa !8
  call void %42(ptr noundef %43)
  %44 = load ptr, ptr %4, align 8, !tbaa !28
  call void @Py_DECREF(ptr noundef %44)
  %45 = load ptr, ptr %5, align 8, !tbaa !115
  %46 = getelementptr inbounds nuw %struct._ts, ptr %45, i32 0, i32 9
  %47 = load i32, ptr %46, align 4, !tbaa !117
  %48 = add i32 %47, 1
  store i32 %48, ptr %46, align 4, !tbaa !117
  %49 = load ptr, ptr %5, align 8, !tbaa !115
  %50 = getelementptr inbounds nuw %struct._ts, ptr %49, i32 0, i32 25
  %51 = load ptr, ptr %50, align 8, !tbaa !126
  %52 = icmp ne ptr %51, null
  br i1 %52, label %53, label %60

53:                                               ; preds = %37
  %54 = load ptr, ptr %5, align 8, !tbaa !115
  %55 = getelementptr inbounds nuw %struct._ts, ptr %54, i32 0, i32 9
  %56 = load i32, ptr %55, align 4, !tbaa !117
  %57 = icmp sgt i32 %56, 100
  br i1 %57, label %58, label %60

58:                                               ; preds = %53
  %59 = load ptr, ptr %5, align 8, !tbaa !115
  call void @_PyTrash_thread_destroy_chain(ptr noundef %59)
  br label %60

60:                                               ; preds = %58, %53, %37
  store i32 0, ptr %6, align 4
  br label %61

61:                                               ; preds = %60, %23
  call void @llvm.lifetime.end.p0(i64 8, ptr %5) #8
  %62 = load i32, ptr %6, align 4
  switch i32 %62, label %66 [
    i32 0, label %63
    i32 2, label %65
  ]

63:                                               ; preds = %61
  br label %64

64:                                               ; preds = %63
  br label %65

65:                                               ; preds = %64, %61
  call void @llvm.lifetime.end.p0(i64 8, ptr %4) #8
  call void @llvm.lifetime.end.p0(i64 8, ptr %3) #8
  ret void

66:                                               ; preds = %61
  unreachable
}