; Function Attrs: nounwind uwtable
define internal void @element_dealloc(ptr noundef %0) #0 {
  %2 = getelementptr i8, ptr %0, i64 8
  %.val19 = load ptr, ptr %2, align 8, !tbaa !25
  tail call void @PyObject_GC_UnTrack(ptr noundef %0) #12
  %3 = tail call ptr @PyThreadState_Get() #12
  %4 = getelementptr inbounds nuw i8, ptr %3, i64 52
  %5 = load i32, ptr %4, align 4, !tbaa !109
  %6 = icmp slt i32 %5, 51
  br i1 %6, label %7, label %12

7:                                                ; preds = %1
  %.val = load ptr, ptr %2, align 8, !tbaa !25
  %8 = getelementptr inbounds nuw i8, ptr %.val, i64 48
  %9 = load ptr, ptr %8, align 8, !tbaa !118
  %10 = icmp eq ptr %9, @element_dealloc
  br i1 %10, label %11, label %12

11:                                               ; preds = %7
  tail call void @_PyTrash_thread_deposit_object(ptr noundef nonnull %3, ptr noundef nonnull %0) #12
  br label %32

12:                                               ; preds = %7, %1
  %13 = add i32 %5, -1
  store i32 %13, ptr %4, align 4, !tbaa !109
  %14 = getelementptr inbounds nuw i8, ptr %0, i64 48
  %15 = load ptr, ptr %14, align 8, !tbaa !47
  %.not = icmp eq ptr %15, null
  br i1 %.not, label %17, label %16

16:                                               ; preds = %12
  tail call void @PyObject_ClearWeakRefs(ptr noundef nonnull %0) #12
  br label %17

17:                                               ; preds = %16, %12
  %18 = tail call i32 @element_gc_clear(ptr noundef nonnull %0)
  %19 = getelementptr inbounds nuw i8, ptr %.val19, i64 320
  %20 = load ptr, ptr %19, align 8, !tbaa !79
  tail call void %20(ptr noundef nonnull %0) #12
  %21 = load i32, ptr %.val19, align 8, !tbaa !21
  %.not.i = icmp sgt i32 %21, -1
  br i1 %.not.i, label %22, label %Py_DECREF.exit

22:                                               ; preds = %17
  %23 = add nsw i32 %21, -1
  store i32 %23, ptr %.val19, align 8, !tbaa !21
  %24 = icmp eq i32 %23, 0
  br i1 %24, label %25, label %Py_DECREF.exit

25:                                               ; preds = %22
  tail call void @_Py_Dealloc(ptr noundef nonnull %.val19) #12
  br label %Py_DECREF.exit

Py_DECREF.exit:                                   ; preds = %17, %22, %25
  %26 = load i32, ptr %4, align 4, !tbaa !109
  %27 = add i32 %26, 1
  store i32 %27, ptr %4, align 4, !tbaa !109
  %28 = getelementptr inbounds nuw i8, ptr %3, i64 168
  %29 = load ptr, ptr %28, align 8, !tbaa !119
  %.not18 = icmp ne ptr %29, null
  %30 = icmp sgt i32 %27, 100
  %or.cond = select i1 %.not18, i1 %30, i1 false
  br i1 %or.cond, label %31, label %32

31:                                               ; preds = %Py_DECREF.exit
  tail call void @_PyTrash_thread_destroy_chain(ptr noundef nonnull %3) #12
  br label %32

32:                                               ; preds = %Py_DECREF.exit, %31, %11
  ret void
}